; ModuleID = 'source-C-CXX/9/519.cpp'
source_filename = "source-C-CXX/9/519.cpp"
target datalayout = "e-m:e-p270:32:32-p271:32:32-p272:64:64-i64:64-f80:128-n8:16:32:64-S128"
target triple = "x86_64-pc-linux-gnu"

%"class.std::ios_base::Init" = type { i8 }
%"class.std::basic_istream" = type { i32 (...)**, i64, %"class.std::basic_ios" }
%"class.std::basic_ios" = type { %"class.std::ios_base", %"class.std::basic_ostream"*, i8, i8, %"class.std::basic_streambuf"*, %"class.std::ctype"*, %"class.std::num_put"*, %"class.std::num_get"* }
%"class.std::ios_base" = type { i32 (...)**, i64, i64, i32, i32, i32, %"struct.std::ios_base::_Callback_list"*, %"struct.std::ios_base::_Words", [8 x %"struct.std::ios_base::_Words"], i32, %"struct.std::ios_base::_Words"*, %"class.std::locale" }
%"struct.std::ios_base::_Callback_list" = type { %"struct.std::ios_base::_Callback_list"*, void (i32, %"class.std::ios_base"*, i32)*, i32, i32 }
%"struct.std::ios_base::_Words" = type { i8*, i64 }
%"class.std::locale" = type { %"class.std::locale::_Impl"* }
%"class.std::locale::_Impl" = type { i32, %"class.std::locale::facet"**, i64, %"class.std::locale::facet"**, i8** }
%"class.std::locale::facet" = type <{ i32 (...)**, i32, [4 x i8] }>
%"class.std::basic_ostream" = type { i32 (...)**, %"class.std::basic_ios" }
%"class.std::basic_streambuf" = type { i32 (...)**, i8*, i8*, i8*, i8*, i8*, i8*, %"class.std::locale" }
%"class.std::ctype" = type <{ %"class.std::locale::facet.base", [4 x i8], %struct.__locale_struct*, i8, [7 x i8], i32*, i32*, i16*, i8, [256 x i8], [256 x i8], i8, [6 x i8] }>
%"class.std::locale::facet.base" = type <{ i32 (...)**, i32 }>
%struct.__locale_struct = type { [13 x %struct.__locale_data*], i16*, i32*, i32*, [13 x i8*] }
%struct.__locale_data = type opaque
%"class.std::num_put" = type { %"class.std::locale::facet.base", [4 x i8] }
%"class.std::num_get" = type { %"class.std::locale::facet.base", [4 x i8] }

@_ZStL8__ioinit = internal global %"class.std::ios_base::Init" zeroinitializer, align 1
@__dso_handle = external hidden global i8
@f = dso_local local_unnamed_addr global [30 x i32] zeroinitializer, align 16
@a = dso_local global [30 x i32] zeroinitializer, align 16
@k = dso_local global i32 0, align 4
@_ZSt3cin = external global %"class.std::basic_istream", align 8
@_ZSt4cout = external global %"class.std::basic_ostream", align 8
@llvm.global_ctors = appending global [1 x { i32, void ()*, i8* }] [{ i32, void ()*, i8* } { i32 65535, void ()* @_GLOBAL__sub_I_519.cpp, i8* null }]

declare void @_ZNSt8ios_base4InitC1Ev(%"class.std::ios_base::Init"* nonnull align 1 dereferenceable(1)) unnamed_addr #0

; Function Attrs: nounwind
declare void @_ZNSt8ios_base4InitD1Ev(%"class.std::ios_base::Init"* nonnull align 1 dereferenceable(1)) unnamed_addr #1

; Function Attrs: nofree nounwind
declare i32 @__cxa_atexit(void (i8*)*, i8*, i8*) local_unnamed_addr #2

; Function Attrs: mustprogress norecurse sspstrong uwtable
define dso_local i32 @main() local_unnamed_addr #3 {
  %1 = tail call nonnull align 8 dereferenceable(16) %"class.std::basic_istream"* @_ZNSirsERi(%"class.std::basic_istream"* nonnull align 8 dereferenceable(16) @_ZSt3cin, i32* nonnull align 4 dereferenceable(4) @k)
  %2 = load i32, i32* @k, align 4, !tbaa !5
  %3 = icmp sgt i32 %2, 0
  br i1 %3, label %12, label %4

4:                                                ; preds = %0
  %5 = load i32, i32* getelementptr inbounds ([30 x i32], [30 x i32]* @f, i64 0, i64 0), align 16, !tbaa !5
  br label %131

6:                                                ; preds = %12
  %7 = icmp sgt i32 %18, 1
  br i1 %7, label %10, label %8

8:                                                ; preds = %6
  %9 = load i32, i32* getelementptr inbounds ([30 x i32], [30 x i32]* @f, i64 0, i64 0), align 16, !tbaa !5
  br label %131

10:                                               ; preds = %6
  %11 = zext i32 %18 to i64
  br label %21

12:                                               ; preds = %0, %12
  %13 = phi i64 [ %17, %12 ], [ 0, %0 ]
  %14 = getelementptr inbounds [30 x i32], [30 x i32]* @a, i64 0, i64 %13
  %15 = tail call nonnull align 8 dereferenceable(16) %"class.std::basic_istream"* @_ZNSirsERi(%"class.std::basic_istream"* nonnull align 8 dereferenceable(16) @_ZSt3cin, i32* nonnull align 4 dereferenceable(4) %14)
  %16 = getelementptr inbounds [30 x i32], [30 x i32]* @f, i64 0, i64 %13
  store i32 1, i32* %16, align 4, !tbaa !5
  %17 = add nuw nsw i64 %13, 1
  %18 = load i32, i32* @k, align 4, !tbaa !5
  %19 = sext i32 %18 to i64
  %20 = icmp slt i64 %17, %19
  br i1 %20, label %12, label %6, !llvm.loop !9

21:                                               ; preds = %10, %41
  %22 = phi i64 [ 1, %10 ], [ %42, %41 ]
  %23 = getelementptr inbounds [30 x i32], [30 x i32]* @a, i64 0, i64 %22
  %24 = load i32, i32* %23, align 4, !tbaa !5
  %25 = getelementptr inbounds [30 x i32], [30 x i32]* @f, i64 0, i64 %22
  br label %26

26:                                               ; preds = %21, %38
  %27 = phi i64 [ 0, %21 ], [ %39, %38 ]
  %28 = getelementptr inbounds [30 x i32], [30 x i32]* @a, i64 0, i64 %27
  %29 = load i32, i32* %28, align 4, !tbaa !5
  %30 = icmp slt i32 %29, %24
  br i1 %30, label %38, label %31

31:                                               ; preds = %26
  %32 = getelementptr inbounds [30 x i32], [30 x i32]* @f, i64 0, i64 %27
  %33 = load i32, i32* %32, align 4, !tbaa !5
  %34 = load i32, i32* %25, align 4, !tbaa !5
  %35 = icmp slt i32 %33, %34
  br i1 %35, label %38, label %36

36:                                               ; preds = %31
  %37 = add nsw i32 %33, 1
  store i32 %37, i32* %25, align 4, !tbaa !5
  br label %38

38:                                               ; preds = %26, %36, %31
  %39 = add nuw nsw i64 %27, 1
  %40 = icmp eq i64 %39, %22
  br i1 %40, label %41, label %26, !llvm.loop !11

41:                                               ; preds = %38
  %42 = add nuw nsw i64 %22, 1
  %43 = icmp eq i64 %42, %11
  br i1 %43, label %44, label %21, !llvm.loop !12

44:                                               ; preds = %41
  %45 = load i32, i32* getelementptr inbounds ([30 x i32], [30 x i32]* @f, i64 0, i64 0), align 16, !tbaa !5
  br i1 %7, label %46, label %131

46:                                               ; preds = %44
  %47 = zext i32 %18 to i64
  %48 = add nsw i64 %11, -1
  %49 = icmp ult i64 %48, 8
  br i1 %49, label %119, label %50

50:                                               ; preds = %46
  %51 = and i64 %48, -8
  %52 = or i64 %51, 1
  %53 = insertelement <4 x i32> poison, i32 %45, i32 0
  %54 = shufflevector <4 x i32> %53, <4 x i32> poison, <4 x i32> zeroinitializer
  %55 = add nsw i64 %51, -8
  %56 = lshr exact i64 %55, 3
  %57 = add nuw nsw i64 %56, 1
  %58 = and i64 %57, 1
  %59 = icmp eq i64 %55, 0
  br i1 %59, label %94, label %60

60:                                               ; preds = %50
  %61 = and i64 %57, 4611686018427387902
  br label %62

62:                                               ; preds = %62, %60
  %63 = phi i64 [ 0, %60 ], [ %89, %62 ]
  %64 = phi <4 x i32> [ %54, %60 ], [ %87, %62 ]
  %65 = phi <4 x i32> [ %54, %60 ], [ %88, %62 ]
  %66 = phi i64 [ %61, %60 ], [ %90, %62 ]
  %67 = or i64 %63, 1
  %68 = getelementptr inbounds [30 x i32], [30 x i32]* @f, i64 0, i64 %67
  %69 = bitcast i32* %68 to <4 x i32>*
  %70 = load <4 x i32>, <4 x i32>* %69, align 4, !tbaa !5
  %71 = getelementptr inbounds i32, i32* %68, i64 4
  %72 = bitcast i32* %71 to <4 x i32>*
  %73 = load <4 x i32>, <4 x i32>* %72, align 4, !tbaa !5
  %74 = icmp sgt <4 x i32> %70, %64
  %75 = icmp sgt <4 x i32> %73, %65
  %76 = select <4 x i1> %74, <4 x i32> %70, <4 x i32> %64
  %77 = select <4 x i1> %75, <4 x i32> %73, <4 x i32> %65
  %78 = or i64 %63, 9
  %79 = getelementptr inbounds [30 x i32], [30 x i32]* @f, i64 0, i64 %78
  %80 = bitcast i32* %79 to <4 x i32>*
  %81 = load <4 x i32>, <4 x i32>* %80, align 4, !tbaa !5
  %82 = getelementptr inbounds i32, i32* %79, i64 4
  %83 = bitcast i32* %82 to <4 x i32>*
  %84 = load <4 x i32>, <4 x i32>* %83, align 4, !tbaa !5
  %85 = icmp sgt <4 x i32> %81, %76
  %86 = icmp sgt <4 x i32> %84, %77
  %87 = select <4 x i1> %85, <4 x i32> %81, <4 x i32> %76
  %88 = select <4 x i1> %86, <4 x i32> %84, <4 x i32> %77
  %89 = add nuw i64 %63, 16
  %90 = add i64 %66, -2
  %91 = icmp eq i64 %90, 0
  br i1 %91, label %92, label %62, !llvm.loop !13

92:                                               ; preds = %62
  %93 = or i64 %89, 1
  br label %94

94:                                               ; preds = %92, %50
  %95 = phi <4 x i32> [ undef, %50 ], [ %87, %92 ]
  %96 = phi <4 x i32> [ undef, %50 ], [ %88, %92 ]
  %97 = phi i64 [ 1, %50 ], [ %93, %92 ]
  %98 = phi <4 x i32> [ %54, %50 ], [ %87, %92 ]
  %99 = phi <4 x i32> [ %54, %50 ], [ %88, %92 ]
  %100 = icmp eq i64 %58, 0
  br i1 %100, label %112, label %101

101:                                              ; preds = %94
  %102 = getelementptr inbounds [30 x i32], [30 x i32]* @f, i64 0, i64 %97
  %103 = bitcast i32* %102 to <4 x i32>*
  %104 = load <4 x i32>, <4 x i32>* %103, align 4, !tbaa !5
  %105 = getelementptr inbounds i32, i32* %102, i64 4
  %106 = bitcast i32* %105 to <4 x i32>*
  %107 = load <4 x i32>, <4 x i32>* %106, align 4, !tbaa !5
  %108 = icmp sgt <4 x i32> %107, %99
  %109 = select <4 x i1> %108, <4 x i32> %107, <4 x i32> %99
  %110 = icmp sgt <4 x i32> %104, %98
  %111 = select <4 x i1> %110, <4 x i32> %104, <4 x i32> %98
  br label %112

112:                                              ; preds = %94, %101
  %113 = phi <4 x i32> [ %95, %94 ], [ %111, %101 ]
  %114 = phi <4 x i32> [ %96, %94 ], [ %109, %101 ]
  %115 = icmp sgt <4 x i32> %113, %114
  %116 = select <4 x i1> %115, <4 x i32> %113, <4 x i32> %114
  %117 = call i32 @llvm.vector.reduce.smax.v4i32(<4 x i32> %116)
  %118 = icmp eq i64 %48, %51
  br i1 %118, label %131, label %119

119:                                              ; preds = %46, %112
  %120 = phi i64 [ 1, %46 ], [ %52, %112 ]
  %121 = phi i32 [ %45, %46 ], [ %117, %112 ]
  br label %122

122:                                              ; preds = %119, %122
  %123 = phi i64 [ %129, %122 ], [ %120, %119 ]
  %124 = phi i32 [ %128, %122 ], [ %121, %119 ]
  %125 = getelementptr inbounds [30 x i32], [30 x i32]* @f, i64 0, i64 %123
  %126 = load i32, i32* %125, align 4, !tbaa !5
  %127 = icmp sgt i32 %126, %124
  %128 = select i1 %127, i32 %126, i32 %124
  %129 = add nuw nsw i64 %123, 1
  %130 = icmp eq i64 %129, %47
  br i1 %130, label %131, label %122, !llvm.loop !15

131:                                              ; preds = %122, %112, %4, %8, %44
  %132 = phi i32 [ %45, %44 ], [ %9, %8 ], [ %5, %4 ], [ %117, %112 ], [ %128, %122 ]
  %133 = tail call nonnull align 8 dereferenceable(8) %"class.std::basic_ostream"* @_ZNSolsEi(%"class.std::basic_ostream"* nonnull align 8 dereferenceable(8) @_ZSt4cout, i32 %132)
  %134 = bitcast %"class.std::basic_ostream"* %133 to i8**
  %135 = load i8*, i8** %134, align 8, !tbaa !17
  %136 = getelementptr i8, i8* %135, i64 -24
  %137 = bitcast i8* %136 to i64*
  %138 = load i64, i64* %137, align 8
  %139 = bitcast %"class.std::basic_ostream"* %133 to i8*
  %140 = add nsw i64 %138, 240
  %141 = getelementptr inbounds i8, i8* %139, i64 %140
  %142 = bitcast i8* %141 to %"class.std::ctype"**
  %143 = load %"class.std::ctype"*, %"class.std::ctype"** %142, align 8, !tbaa !19
  %144 = icmp eq %"class.std::ctype"* %143, null
  br i1 %144, label %145, label %146

145:                                              ; preds = %131
  tail call void @_ZSt16__throw_bad_castv() #7
  unreachable

146:                                              ; preds = %131
  %147 = getelementptr inbounds %"class.std::ctype", %"class.std::ctype"* %143, i64 0, i32 8
  %148 = load i8, i8* %147, align 8, !tbaa !23
  %149 = icmp eq i8 %148, 0
  br i1 %149, label %153, label %150

150:                                              ; preds = %146
  %151 = getelementptr inbounds %"class.std::ctype", %"class.std::ctype"* %143, i64 0, i32 9, i64 10
  %152 = load i8, i8* %151, align 1, !tbaa !25
  br label %159

153:                                              ; preds = %146
  tail call void @_ZNKSt5ctypeIcE13_M_widen_initEv(%"class.std::ctype"* nonnull align 8 dereferenceable(570) %143)
  %154 = bitcast %"class.std::ctype"* %143 to i8 (%"class.std::ctype"*, i8)***
  %155 = load i8 (%"class.std::ctype"*, i8)**, i8 (%"class.std::ctype"*, i8)*** %154, align 8, !tbaa !17
  %156 = getelementptr inbounds i8 (%"class.std::ctype"*, i8)*, i8 (%"class.std::ctype"*, i8)** %155, i64 6
  %157 = load i8 (%"class.std::ctype"*, i8)*, i8 (%"class.std::ctype"*, i8)** %156, align 8
  %158 = tail call signext i8 %157(%"class.std::ctype"* nonnull align 8 dereferenceable(570) %143, i8 signext 10)
  br label %159

159:                                              ; preds = %150, %153
  %160 = phi i8 [ %152, %150 ], [ %158, %153 ]
  %161 = tail call nonnull align 8 dereferenceable(8) %"class.std::basic_ostream"* @_ZNSo3putEc(%"class.std::basic_ostream"* nonnull align 8 dereferenceable(8) %133, i8 signext %160)
  %162 = tail call nonnull align 8 dereferenceable(8) %"class.std::basic_ostream"* @_ZNSo5flushEv(%"class.std::basic_ostream"* nonnull align 8 dereferenceable(8) %161)
  ret i32 0
}

declare nonnull align 8 dereferenceable(16) %"class.std::basic_istream"* @_ZNSirsERi(%"class.std::basic_istream"* nonnull align 8 dereferenceable(16), i32* nonnull align 4 dereferenceable(4)) local_unnamed_addr #0

declare nonnull align 8 dereferenceable(8) %"class.std::basic_ostream"* @_ZNSolsEi(%"class.std::basic_ostream"* nonnull align 8 dereferenceable(8), i32) local_unnamed_addr #0

declare nonnull align 8 dereferenceable(8) %"class.std::basic_ostream"* @_ZNSo3putEc(%"class.std::basic_ostream"* nonnull align 8 dereferenceable(8), i8 signext) local_unnamed_addr #0

declare nonnull align 8 dereferenceable(8) %"class.std::basic_ostream"* @_ZNSo5flushEv(%"class.std::basic_ostream"* nonnull align 8 dereferenceable(8)) local_unnamed_addr #0

; Function Attrs: noreturn
declare void @_ZSt16__throw_bad_castv() local_unnamed_addr #4

declare void @_ZNKSt5ctypeIcE13_M_widen_initEv(%"class.std::ctype"* nonnull align 8 dereferenceable(570)) local_unnamed_addr #0

; Function Attrs: sspstrong uwtable
define internal void @_GLOBAL__sub_I_519.cpp() #5 section ".text.startup" {
  tail call void @_ZNSt8ios_base4InitC1Ev(%"class.std::ios_base::Init"* nonnull align 1 dereferenceable(1) @_ZStL8__ioinit)
  %1 = tail call i32 @__cxa_atexit(void (i8*)* bitcast (void (%"class.std::ios_base::Init"*)* @_ZNSt8ios_base4InitD1Ev to void (i8*)*), i8* getelementptr inbounds (%"class.std::ios_base::Init", %"class.std::ios_base::Init"* @_ZStL8__ioinit, i64 0, i32 0), i8* nonnull @__dso_handle) #8
  ret void
}

; Function Attrs: nofree nosync nounwind readnone willreturn
declare i32 @llvm.vector.reduce.smax.v4i32(<4 x i32>) #6


!llvm.module.flags = !{!0, !1, !2, !3}
!llvm.ident = !{!4}

!0 = !{i32 1, !"wchar_size", i32 4}
!1 = !{i32 7, !"PIC Level", i32 2}
!2 = !{i32 7, !"PIE Level", i32 2}
!3 = !{i32 7, !"uwtable", i32 1}
!4 = !{!"clang version 13.0.0"}
!5 = !{!6, !6, i64 0}
!6 = !{!"int", !7, i64 0}
!7 = !{!"omnipotent char", !8, i64 0}
!8 = !{!"Simple C++ TBAA"}
!9 = distinct !{!9, !10}
!10 = !{!"llvm.loop.mustprogress"}
!11 = distinct !{!11, !10}
!12 = distinct !{!12, !10}
!13 = distinct !{!13, !10, !14}
!14 = !{!"llvm.loop.isvectorized", i32 1}
!15 = distinct !{!15, !10, !16, !14}
!16 = !{!"llvm.loop.unroll.runtime.disable"}
!17 = !{!18, !18, i64 0}
!18 = !{!"vtable pointer", !8, i64 0}
!19 = !{!20, !21, i64 240}
!20 = !{!"_ZTSSt9basic_iosIcSt11char_traitsIcEE", !21, i64 216, !7, i64 224, !22, i64 225, !21, i64 232, !21, i64 240, !21, i64 248, !21, i64 256}
!21 = !{!"any pointer", !7, i64 0}
!22 = !{!"bool", !7, i64 0}
!23 = !{!24, !7, i64 56}
!24 = !{!"_ZTSSt5ctypeIcE", !21, i64 16, !22, i64 24, !21, i64 32, !21, i64 40, !21, i64 48, !7, i64 56, !7, i64 57, !7, i64 313, !7, i64 569}
!25 = !{!7, !7, i64 0}
